target datalayout = "e-m:e-p270:32:32-p271:32:32-p272:64:64-i64:64-i128:128-f80:128-n8:16:32:64-S128"
target triple = "x86_64-pc-linux-gnu"

@libctx = internal global ptr null, align 8
@.str.14 = private unnamed_addr constant [29 x i8] c"../openssl/test/sslapitest.c\00", align 1
@.str.33 = private unnamed_addr constant [13 x i8] c"tls-provider\00", align 1
@cert = internal global ptr null, align 8
@privkey = internal global ptr null, align 8
@.str.157 = private unnamed_addr constant [67 x i8] c"create_ssl_objects(sctx, cctx, &serverssl, &clientssl, NULL, NULL)\00", align 1
@.str.158 = private unnamed_addr constant [60 x i8] c"create_ssl_connection(serverssl, clientssl, SSL_ERROR_NONE)\00", align 1
@.str.650 = private unnamed_addr constant [31 x i8] c"SSL_get0_group_name(serverssl)\00", align 1
@.str.651 = private unnamed_addr constant [31 x i8] c"SSL_get0_group_name(clientssl)\00", align 1
@.str.1048 = private unnamed_addr constant [7 x i8] c"legacy\00", align 1
@.str.1049 = private unnamed_addr constant [12 x i8] c"xorkemgroup\00", align 1
@.str.1050 = private unnamed_addr constant [9 x i8] c"xorgroup\00", align 1
@.str.1051 = private unnamed_addr constant [8 x i8] c"tlsprov\00", align 1
@.str.1052 = private unnamed_addr constant [131 x i8] c"create_ssl_ctx_pair(libctx, TLS_server_method(), TLS_client_method(), TLS1_3_VERSION, TLS1_3_VERSION, &sctx, &cctx, cert, privkey)\00", align 1
@.str.1055 = private unnamed_addr constant [44 x i8] c"SSL_set1_groups_list(clientssl, group_name)\00", align 1
@.str.1056 = private unnamed_addr constant [11 x i8] c"group_name\00", align 1
@.str.1057 = private unnamed_addr constant [65 x i8] c"SSL_group_to_name(serverssl, SSL_get_shared_group(serverssl, 0))\00", align 1

; Function Attrs: nounwind uwtable
define internal i32 @test_pluggable_group(i32 noundef %0) #0 {
  %2 = alloca i32, align 4
  %3 = alloca ptr, align 8
  %4 = alloca ptr, align 8
  %5 = alloca ptr, align 8
  %6 = alloca ptr, align 8
  %7 = alloca i32, align 4
  %8 = alloca ptr, align 8
  %9 = alloca ptr, align 8
  %10 = alloca ptr, align 8
  store i32 %0, ptr %2, align 4, !tbaa !13
  call void @llvm.lifetime.start.p0(i64 8, ptr %3) #9
  store ptr null, ptr %3, align 8, !tbaa !19
  call void @llvm.lifetime.start.p0(i64 8, ptr %4) #9
  store ptr null, ptr %4, align 8, !tbaa !19
  call void @llvm.lifetime.start.p0(i64 8, ptr %5) #9
  store ptr null, ptr %5, align 8, !tbaa !21
  call void @llvm.lifetime.start.p0(i64 8, ptr %6) #9
  store ptr null, ptr %6, align 8, !tbaa !21
  call void @llvm.lifetime.start.p0(i64 4, ptr %7) #9
  store i32 0, ptr %7, align 4, !tbaa !13
  call void @llvm.lifetime.start.p0(i64 8, ptr %8) #9
  %11 = load ptr, ptr @libctx, align 8, !tbaa !4
  %12 = call ptr @OSSL_PROVIDER_load(ptr noundef %11, ptr noundef @.str.33)
  store ptr %12, ptr %8, align 8, !tbaa !9
  call void @llvm.lifetime.start.p0(i64 8, ptr %9) #9
  %13 = load ptr, ptr @libctx, align 8, !tbaa !4
  %14 = call ptr @OSSL_PROVIDER_load(ptr noundef %13, ptr noundef @.str.1048)
  store ptr %14, ptr %9, align 8, !tbaa !9
  call void @llvm.lifetime.start.p0(i64 8, ptr %10) #9
  %15 = load i32, ptr %2, align 4, !tbaa !13
  %16 = icmp eq i32 %15, 0
  %17 = select i1 %16, ptr @.str.1049, ptr @.str.1050
  store ptr %17, ptr %10, align 8, !tbaa !11
  %18 = load ptr, ptr %8, align 8, !tbaa !9
  %19 = call i32 @test_ptr(ptr noundef @.str.14, i32 noundef 10100, ptr noundef @.str.1051, ptr noundef %18)
  %20 = icmp ne i32 %19, 0
  br i1 %20, label %22, label %21

21:                                               ; preds = %1
  br label %91

22:                                               ; preds = %1
  %23 = load ptr, ptr @libctx, align 8, !tbaa !4
  %24 = call ptr @TLS_server_method()
  %25 = call ptr @TLS_client_method()
  %26 = load ptr, ptr @cert, align 8, !tbaa !11
  %27 = load ptr, ptr @privkey, align 8, !tbaa !11
  %28 = call i32 @create_ssl_ctx_pair(ptr noundef %23, ptr noundef %24, ptr noundef %25, i32 noundef 772, i32 noundef 772, ptr noundef %4, ptr noundef %3, ptr noundef %26, ptr noundef %27)
  %29 = icmp ne i32 %28, 0
  %30 = zext i1 %29 to i32
  %31 = call i32 @test_true(ptr noundef @.str.14, i32 noundef 10107, ptr noundef @.str.1052, i32 noundef %30)
  %32 = icmp ne i32 %31, 0
  br i1 %32, label %33, label %41

33:                                               ; preds = %22
  %34 = load ptr, ptr %4, align 8, !tbaa !19
  %35 = load ptr, ptr %3, align 8, !tbaa !19
  %36 = call i32 @create_ssl_objects(ptr noundef %34, ptr noundef %35, ptr noundef %6, ptr noundef %5, ptr noundef null, ptr noundef null)
  %37 = icmp ne i32 %36, 0
  %38 = zext i1 %37 to i32
  %39 = call i32 @test_true(ptr noundef @.str.14, i32 noundef 10109, ptr noundef @.str.157, i32 noundef %38)
  %40 = icmp ne i32 %39, 0
  br i1 %40, label %42, label %41

41:                                               ; preds = %33, %22
  br label %91

42:                                               ; preds = %33
  %43 = load ptr, ptr %6, align 8, !tbaa !21
  %44 = call i64 @SSL_ctrl(ptr noundef %43, i32 noundef 92, i64 noundef 0, ptr noundef @.str.1054)
  %45 = icmp ne i64 %44, 0
  %46 = zext i1 %45 to i32
  %47 = call i32 @test_true(ptr noundef @.str.14, i32 noundef 10113, ptr noundef @.str.1053, i32 noundef %46)
  %48 = icmp ne i32 %47, 0
  br i1 %48, label %49, label %57

49:                                               ; preds = %42
  %50 = load ptr, ptr %5, align 8, !tbaa !21
  %51 = load ptr, ptr %10, align 8, !tbaa !11
  %52 = call i64 @SSL_ctrl(ptr noundef %50, i32 noundef 92, i64 noundef 0, ptr noundef %51)
  %53 = icmp ne i64 %52, 0
  %54 = zext i1 %53 to i32
  %55 = call i32 @test_true(ptr noundef @.str.14, i32 noundef 10115, ptr noundef @.str.1055, i32 noundef %54)
  %56 = icmp ne i32 %55, 0
  br i1 %56, label %58, label %57

57:                                               ; preds = %49, %42
  br label %91

58:                                               ; preds = %49
  %59 = load ptr, ptr %6, align 8, !tbaa !21
  %60 = load ptr, ptr %5, align 8, !tbaa !21
  %61 = call i32 @create_ssl_connection(ptr noundef %59, ptr noundef %60, i32 noundef 0)
  %62 = icmp ne i32 %61, 0
  %63 = zext i1 %62 to i32
  %64 = call i32 @test_true(ptr noundef @.str.14, i32 noundef 10118, ptr noundef @.str.158, i32 noundef %63)
  %65 = icmp ne i32 %64, 0
  br i1 %65, label %67, label %66

66:                                               ; preds = %58
  br label %91

67:                                               ; preds = %58
  %68 = load ptr, ptr %10, align 8, !tbaa !11
  %69 = load ptr, ptr %6, align 8, !tbaa !21
  %70 = load ptr, ptr %6, align 8, !tbaa !21
  %71 = call i64 @SSL_ctrl(ptr noundef %70, i32 noundef 93, i64 noundef 0, ptr noundef null)
  %72 = trunc i64 %71 to i32
  %73 = call ptr @SSL_group_to_name(ptr noundef %69, i32 noundef %72)
  %74 = call i32 @test_str_eq(ptr noundef @.str.14, i32 noundef 10122, ptr noundef @.str.1056, ptr noundef @.str.1057, ptr noundef %68, ptr noundef %73)
  %75 = icmp ne i32 %74, 0
  br i1 %75, label %77, label %76

76:                                               ; preds = %67
  br label %91

77:                                               ; preds = %67
  %78 = load ptr, ptr %10, align 8, !tbaa !11
  %79 = load ptr, ptr %6, align 8, !tbaa !21
  %80 = call ptr @SSL_get0_group_name(ptr noundef %79)
  %81 = call i32 @test_str_eq(ptr noundef @.str.14, i32 noundef 10125, ptr noundef @.str.1056, ptr noundef @.str.650, ptr noundef %78, ptr noundef %80)
  %82 = icmp ne i32 %81, 0
  br i1 %82, label %83, label %89

83:                                               ; preds = %77
  %84 = load ptr, ptr %10, align 8, !tbaa !11
  %85 = load ptr, ptr %5, align 8, !tbaa !21
  %86 = call ptr @SSL_get0_group_name(ptr noundef %85)
  %87 = call i32 @test_str_eq(ptr noundef @.str.14, i32 noundef 10126, ptr noundef @.str.1056, ptr noundef @.str.651, ptr noundef %84, ptr noundef %86)
  %88 = icmp ne i32 %87, 0
  br i1 %88, label %90, label %89

89:                                               ; preds = %83, %77
  br label %91

90:                                               ; preds = %83
  store i32 1, ptr %7, align 4, !tbaa !13
  br label %91

91:                                               ; preds = %90, %89, %76, %66, %57, %41, %21
  %92 = load ptr, ptr %6, align 8, !tbaa !21
  call void @SSL_free(ptr noundef %92)
  %93 = load ptr, ptr %5, align 8, !tbaa !21
  call void @SSL_free(ptr noundef %93)
  %94 = load ptr, ptr %4, align 8, !tbaa !19
  call void @SSL_CTX_free(ptr noundef %94)
  %95 = load ptr, ptr %3, align 8, !tbaa !19
  call void @SSL_CTX_free(ptr noundef %95)
  %96 = load ptr, ptr %8, align 8, !tbaa !9
  %97 = call i32 @OSSL_PROVIDER_unload(ptr noundef %96)
  %98 = load ptr, ptr %9, align 8, !tbaa !9
  %99 = call i32 @OSSL_PROVIDER_unload(ptr noundef %98)
  %100 = load i32, ptr %7, align 4, !tbaa !13
  call void @llvm.lifetime.end.p0(i64 8, ptr %10) #9
  call void @llvm.lifetime.end.p0(i64 8, ptr %9) #9
  call void @llvm.lifetime.end.p0(i64 8, ptr %8) #9
  call void @llvm.lifetime.end.p0(i64 4, ptr %7) #9
  call void @llvm.lifetime.end.p0(i64 8, ptr %6) #9
  call void @llvm.lifetime.end.p0(i64 8, ptr %5) #9
  call void @llvm.lifetime.end.p0(i64 8, ptr %4) #9
  call void @llvm.lifetime.end.p0(i64 8, ptr %3) #9
  ret i32 %100
}