; Function Attrs: nounwind uwtable
define internal range(i32 0, 2) i32 @test_pluggable_group(i32 noundef %0) #1 {
  %2 = alloca ptr, align 8
  %3 = alloca ptr, align 8
  %4 = alloca ptr, align 8
  %5 = alloca ptr, align 8
  call void @llvm.lifetime.start.p0(i64 8, ptr nonnull %2) #24
  store ptr null, ptr %2, align 8, !tbaa !19
  call void @llvm.lifetime.start.p0(i64 8, ptr nonnull %3) #24
  store ptr null, ptr %3, align 8, !tbaa !19
  call void @llvm.lifetime.start.p0(i64 8, ptr nonnull %4) #24
  store ptr null, ptr %4, align 8, !tbaa !21
  call void @llvm.lifetime.start.p0(i64 8, ptr nonnull %5) #24
  store ptr null, ptr %5, align 8, !tbaa !21
  %6 = load ptr, ptr @libctx, align 8, !tbaa !4
  %7 = tail call ptr @OSSL_PROVIDER_load(ptr noundef %6, ptr noundef nonnull @.str.33) #24
  %8 = load ptr, ptr @libctx, align 8, !tbaa !4
  %9 = tail call ptr @OSSL_PROVIDER_load(ptr noundef %8, ptr noundef nonnull @.str.1048) #24
  %10 = icmp eq i32 %0, 0
  %11 = select i1 %10, ptr @.str.1049, ptr @.str.1050
  %12 = tail call i32 @test_ptr(ptr noundef nonnull @.str.14, i32 noundef 10100, ptr noundef nonnull @.str.1051, ptr noundef %7) #24
  %.not = icmp eq i32 %12, 0
  br i1 %.not, label %63, label %13

13:                                               ; preds = %1
  %14 = load ptr, ptr @libctx, align 8, !tbaa !4
  %15 = tail call ptr @TLS_server_method() #24
  %16 = tail call ptr @TLS_client_method() #24
  %17 = load ptr, ptr @cert, align 8, !tbaa !11
  %18 = load ptr, ptr @privkey, align 8, !tbaa !11
  %19 = call i32 @create_ssl_ctx_pair(ptr noundef %14, ptr noundef %15, ptr noundef %16, i32 noundef 772, i32 noundef 772, ptr noundef nonnull %3, ptr noundef nonnull %2, ptr noundef %17, ptr noundef %18) #24
  %20 = icmp ne i32 %19, 0
  %21 = zext i1 %20 to i32
  %22 = call i32 @test_true(ptr noundef nonnull @.str.14, i32 noundef 10107, ptr noundef nonnull @.str.1052, i32 noundef %21) #24
  %.not8 = icmp eq i32 %22, 0
  br i1 %.not8, label %63, label %23

23:                                               ; preds = %13
  %24 = load ptr, ptr %3, align 8, !tbaa !19
  %25 = load ptr, ptr %2, align 8, !tbaa !19
  %26 = call i32 @create_ssl_objects(ptr noundef %24, ptr noundef %25, ptr noundef nonnull %5, ptr noundef nonnull %4, ptr noundef null, ptr noundef null) #24
  %27 = icmp ne i32 %26, 0
  %28 = zext i1 %27 to i32
  %29 = call i32 @test_true(ptr noundef nonnull @.str.14, i32 noundef 10109, ptr noundef nonnull @.str.157, i32 noundef %28) #24
  %.not9 = icmp eq i32 %29, 0
  br i1 %.not9, label %63, label %30

30:                                               ; preds = %23
  %31 = load ptr, ptr %5, align 8, !tbaa !21
  %32 = call i64 @SSL_ctrl(ptr noundef %31, i32 noundef 92, i64 noundef 0, ptr noundef nonnull @.str.1054) #24
  %33 = icmp ne i64 %32, 0
  %34 = zext i1 %33 to i32
  %35 = call i32 @test_true(ptr noundef nonnull @.str.14, i32 noundef 10113, ptr noundef nonnull @.str.1053, i32 noundef %34) #24
  %.not10 = icmp eq i32 %35, 0
  br i1 %.not10, label %63, label %36

36:                                               ; preds = %30
  %37 = load ptr, ptr %4, align 8, !tbaa !21
  %38 = call i64 @SSL_ctrl(ptr noundef %37, i32 noundef 92, i64 noundef 0, ptr noundef nonnull %11) #24
  %39 = icmp ne i64 %38, 0
  %40 = zext i1 %39 to i32
  %41 = call i32 @test_true(ptr noundef nonnull @.str.14, i32 noundef 10115, ptr noundef nonnull @.str.1055, i32 noundef %40) #24
  %.not11 = icmp eq i32 %41, 0
  br i1 %.not11, label %63, label %42

42:                                               ; preds = %36
  %43 = load ptr, ptr %5, align 8, !tbaa !21
  %44 = load ptr, ptr %4, align 8, !tbaa !21
  %45 = call i32 @create_ssl_connection(ptr noundef %43, ptr noundef %44, i32 noundef 0) #24
  %46 = icmp ne i32 %45, 0
  %47 = zext i1 %46 to i32
  %48 = call i32 @test_true(ptr noundef nonnull @.str.14, i32 noundef 10118, ptr noundef nonnull @.str.158, i32 noundef %47) #24
  %.not12 = icmp eq i32 %48, 0
  br i1 %.not12, label %63, label %49

49:                                               ; preds = %42
  %50 = load ptr, ptr %5, align 8, !tbaa !21
  %51 = call i64 @SSL_ctrl(ptr noundef %50, i32 noundef 93, i64 noundef 0, ptr noundef null) #24
  %52 = trunc i64 %51 to i32
  %53 = call ptr @SSL_group_to_name(ptr noundef %50, i32 noundef %52) #24
  %54 = call i32 @test_str_eq(ptr noundef nonnull @.str.14, i32 noundef 10122, ptr noundef nonnull @.str.1056, ptr noundef nonnull @.str.1057, ptr noundef nonnull %11, ptr noundef %53) #24
  %.not13 = icmp eq i32 %54, 0
  br i1 %.not13, label %63, label %55

55:                                               ; preds = %49
  %56 = load ptr, ptr %5, align 8, !tbaa !21
  %57 = call ptr @SSL_get0_group_name(ptr noundef %56) #24
  %58 = call i32 @test_str_eq(ptr noundef nonnull @.str.14, i32 noundef 10125, ptr noundef nonnull @.str.1056, ptr noundef nonnull @.str.650, ptr noundef nonnull %11, ptr noundef %57) #24
  %.not14 = icmp eq i32 %58, 0
  br i1 %.not14, label %63, label %59

59:                                               ; preds = %55
  %60 = load ptr, ptr %4, align 8, !tbaa !21
  %61 = call ptr @SSL_get0_group_name(ptr noundef %60) #24
  %62 = call i32 @test_str_eq(ptr noundef nonnull @.str.14, i32 noundef 10126, ptr noundef nonnull @.str.1056, ptr noundef nonnull @.str.651, ptr noundef nonnull %11, ptr noundef %61) #24
  %.not15 = icmp ne i32 %62, 0
  %spec.select = zext i1 %.not15 to i32
  br label %63

63:                                               ; preds = %59, %55, %49, %42, %30, %36, %13, %23, %1
  %.0 = phi i32 [ 0, %55 ], [ 0, %49 ], [ 0, %42 ], [ 0, %36 ], [ 0, %30 ], [ 0, %23 ], [ 0, %13 ], [ 0, %1 ], [ %spec.select, %59 ]
  %64 = load ptr, ptr %5, align 8, !tbaa !21
  call void @SSL_free(ptr noundef %64) #24
  %65 = load ptr, ptr %4, align 8, !tbaa !21
  call void @SSL_free(ptr noundef %65) #24
  %66 = load ptr, ptr %3, align 8, !tbaa !19
  call void @SSL_CTX_free(ptr noundef %66) #24
  %67 = load ptr, ptr %2, align 8, !tbaa !19
  call void @SSL_CTX_free(ptr noundef %67) #24
  %68 = call i32 @OSSL_PROVIDER_unload(ptr noundef %7) #24
  %69 = call i32 @OSSL_PROVIDER_unload(ptr noundef %9) #24
  call void @llvm.lifetime.end.p0(i64 8, ptr nonnull %5) #24
  call void @llvm.lifetime.end.p0(i64 8, ptr nonnull %4) #24
  call void @llvm.lifetime.end.p0(i64 8, ptr nonnull %3) #24
  call void @llvm.lifetime.end.p0(i64 8, ptr nonnull %2) #24
  ret i32 %.0
}